target datalayout = "e-m:e-p270:32:32-p271:32:32-p272:64:64-i64:64-i128:128-f80:128-n8:16:32:64-S128"
target triple = "x86_64-pc-linux-gnu"

%struct.AVRational = type { i32, i32 }
%struct.Jpeg2000DecoderContext = type { ptr, ptr, %struct.GetByteContext, i32, i32, i32, i32, i32, i32, [4 x i8], [4 x i8], [4 x i8], i8, ptr, i32, %struct.GetByteContext, [4 x i32], [4 x i32], i32, i32, i32, [256 x i32], i8, [4 x i32], i32, i32, i32, i32, i32, %struct.AVRational, [4 x %struct.Jpeg2000CodingStyle], [4 x %struct.Jpeg2000QuantStyle], %struct.Jpeg2000POC, [4 x i8], i32, i32, ptr, %struct.Jpeg2000DSPContext, i8, i8, i8, i8, i8, i8, i32 }
%struct.GetByteContext = type { ptr, ptr, ptr }
%struct.Jpeg2000CodingStyle = type { i32, i32, i8, i8, i8, i8, i8, i8, i8, i8, [34 x i8], [34 x i8], i8 }
%struct.Jpeg2000QuantStyle = type { [99 x i8], [99 x i16], i8, i8 }
%struct.Jpeg2000POC = type { [32 x %struct.Jpeg2000POCEntry], i32, i32 }
%struct.Jpeg2000POCEntry = type { i16, i16, i16, i8, i8, i8 }
%struct.Jpeg2000DSPContext = type { [3 x ptr] }
%struct.Jpeg2000Tile = type { ptr, [4 x i8], [4 x %struct.Jpeg2000CodingStyle], [4 x %struct.Jpeg2000QuantStyle], %struct.Jpeg2000POC, [32 x %struct.Jpeg2000TilePart], i8, ptr, i32, %struct.GetByteContext, i16, [2 x [2 x i32]] }
%struct.Jpeg2000TilePart = type { i8, ptr, %struct.GetByteContext, %struct.GetByteContext }

@.str.74 = private unnamed_addr constant [30 x i8] c"Invalid length for PPT data.\0A\00", align 1
@.str.75 = private unnamed_addr constant [57 x i8] c"PPT marker can occur only on first tile part of a tile.\0A\00", align 1

; Function Attrs: alwaysinline nounwind uwtable
define internal i32 @bytestream_get_byte(ptr noundef %0) #4 {
  %2 = alloca ptr, align 8
  store ptr %0, ptr %2, align 8, !tbaa !122
  %3 = load ptr, ptr %2, align 8, !tbaa !122
  %4 = load ptr, ptr %3, align 8, !tbaa !70
  %5 = getelementptr inbounds i8, ptr %4, i64 1
  store ptr %5, ptr %3, align 8, !tbaa !70
  %6 = load ptr, ptr %2, align 8, !tbaa !122
  %7 = load ptr, ptr %6, align 8, !tbaa !70
  %8 = getelementptr inbounds i8, ptr %7, i64 -1
  %9 = getelementptr inbounds i8, ptr %8, i64 0
  %10 = load i8, ptr %9, align 1, !tbaa !89
  %11 = zext i8 %10 to i32
  ret i32 %11
}

; Function Attrs: alwaysinline nounwind uwtable
define internal i32 @bytestream2_get_byteu(ptr noundef %0) #4 {
  %2 = alloca ptr, align 8
  store ptr %0, ptr %2, align 8, !tbaa !71
  %3 = load ptr, ptr %2, align 8, !tbaa !71
  %4 = getelementptr inbounds nuw %struct.GetByteContext, ptr %3, i32 0, i32 0
  %5 = call i32 @bytestream_get_byte(ptr noundef %4)
  ret i32 %5
}

; Function Attrs: alwaysinline nounwind uwtable
define internal i32 @bytestream2_get_bufferu(ptr noundef %0, ptr noundef %1, i32 noundef %2) #4 {
  %4 = alloca ptr, align 8
  %5 = alloca ptr, align 8
  %6 = alloca i32, align 4
  store ptr %0, ptr %4, align 8, !tbaa !71
  store ptr %1, ptr %5, align 8, !tbaa !70
  store i32 %2, ptr %6, align 4, !tbaa !48
  %7 = load ptr, ptr %5, align 8, !tbaa !70
  %8 = load ptr, ptr %4, align 8, !tbaa !71
  %9 = getelementptr inbounds nuw %struct.GetByteContext, ptr %8, i32 0, i32 0
  %10 = load ptr, ptr %9, align 8, !tbaa !73
  %11 = load i32, ptr %6, align 4, !tbaa !48
  %12 = zext i32 %11 to i64
  call void @llvm.memcpy.p0.p0.i64(ptr align 1 %7, ptr align 1 %10, i64 %12, i1 false)
  %13 = load i32, ptr %6, align 4, !tbaa !48
  %14 = load ptr, ptr %4, align 8, !tbaa !71
  %15 = getelementptr inbounds nuw %struct.GetByteContext, ptr %14, i32 0, i32 0
  %16 = load ptr, ptr %15, align 8, !tbaa !73
  %17 = zext i32 %13 to i64
  %18 = getelementptr inbounds nuw i8, ptr %16, i64 %17
  store ptr %18, ptr %15, align 8, !tbaa !73
  %19 = load i32, ptr %6, align 4, !tbaa !48
  ret i32 %19
}

; Function Attrs: alwaysinline nounwind uwtable
define internal i32 @bytestream2_get_byte(ptr noundef %0) #4 {
  %2 = alloca i32, align 4
  %3 = alloca ptr, align 8
  store ptr %0, ptr %3, align 8, !tbaa !71
  %4 = load ptr, ptr %3, align 8, !tbaa !71
  %5 = getelementptr inbounds nuw %struct.GetByteContext, ptr %4, i32 0, i32 1
  %6 = load ptr, ptr %5, align 8, !tbaa !75
  %7 = load ptr, ptr %3, align 8, !tbaa !71
  %8 = getelementptr inbounds nuw %struct.GetByteContext, ptr %7, i32 0, i32 0
  %9 = load ptr, ptr %8, align 8, !tbaa !73
  %10 = ptrtoint ptr %6 to i64
  %11 = ptrtoint ptr %9 to i64
  %12 = sub i64 %10, %11
  %13 = icmp slt i64 %12, 1
  br i1 %13, label %14, label %20

14:                                               ; preds = %1
  %15 = load ptr, ptr %3, align 8, !tbaa !71
  %16 = getelementptr inbounds nuw %struct.GetByteContext, ptr %15, i32 0, i32 1
  %17 = load ptr, ptr %16, align 8, !tbaa !75
  %18 = load ptr, ptr %3, align 8, !tbaa !71
  %19 = getelementptr inbounds nuw %struct.GetByteContext, ptr %18, i32 0, i32 0
  store ptr %17, ptr %19, align 8, !tbaa !73
  store i32 0, ptr %2, align 4
  br label %23

20:                                               ; preds = %1
  %21 = load ptr, ptr %3, align 8, !tbaa !71
  %22 = call i32 @bytestream2_get_byteu(ptr noundef %21)
  store i32 %22, ptr %2, align 4
  br label %23

23:                                               ; preds = %20, %14
  %24 = load i32, ptr %2, align 4
  ret i32 %24
}

; Function Attrs: nounwind uwtable
define internal i32 @get_ppt(ptr noundef %0, i32 noundef %1) #1 {
  %3 = alloca i32, align 4
  %4 = alloca ptr, align 8
  %5 = alloca i32, align 4
  %6 = alloca ptr, align 8
  %7 = alloca ptr, align 8
  %8 = alloca i32, align 4
  store ptr %0, ptr %4, align 8, !tbaa !29
  store i32 %1, ptr %5, align 4, !tbaa !48
  call void @llvm.lifetime.start.p0(i64 8, ptr %6) #12
  call void @llvm.lifetime.start.p0(i64 8, ptr %7) #12
  %9 = load i32, ptr %5, align 4, !tbaa !48
  %10 = icmp slt i32 %9, 3
  br i1 %10, label %11, label %15

11:                                               ; preds = %2
  %12 = load ptr, ptr %4, align 8, !tbaa !29
  %13 = getelementptr inbounds nuw %struct.Jpeg2000DecoderContext, ptr %12, i32 0, i32 1
  %14 = load ptr, ptr %13, align 8, !tbaa !43
  call void (ptr, i32, ptr, ...) @av_log(ptr noundef %14, i32 noundef 16, ptr noundef @.str.74)
  store i32 -1094995529, ptr %3, align 4
  store i32 1, ptr %8, align 4
  br label %85

15:                                               ; preds = %2
  %16 = load ptr, ptr %4, align 8, !tbaa !29
  %17 = getelementptr inbounds nuw %struct.Jpeg2000DecoderContext, ptr %16, i32 0, i32 35
  %18 = load i32, ptr %17, align 4, !tbaa !47
  %19 = icmp slt i32 %18, 0
  br i1 %19, label %20, label %21

20:                                               ; preds = %15
  store i32 -1094995529, ptr %3, align 4
  store i32 1, ptr %8, align 4
  br label %85

21:                                               ; preds = %15
  %22 = load ptr, ptr %4, align 8, !tbaa !29
  %23 = getelementptr inbounds nuw %struct.Jpeg2000DecoderContext, ptr %22, i32 0, i32 36
  %24 = load ptr, ptr %23, align 8, !tbaa !92
  %25 = load ptr, ptr %4, align 8, !tbaa !29
  %26 = getelementptr inbounds nuw %struct.Jpeg2000DecoderContext, ptr %25, i32 0, i32 35
  %27 = load i32, ptr %26, align 4, !tbaa !47
  %28 = sext i32 %27 to i64
  %29 = getelementptr inbounds %struct.Jpeg2000Tile, ptr %24, i64 %28
  store ptr %29, ptr %6, align 8, !tbaa !93
  %30 = load ptr, ptr %6, align 8, !tbaa !93
  %31 = getelementptr inbounds nuw %struct.Jpeg2000Tile, ptr %30, i32 0, i32 10
  %32 = load i16, ptr %31, align 8, !tbaa !94
  %33 = zext i16 %32 to i32
  %34 = icmp ne i32 %33, 0
  br i1 %34, label %35, label %39

35:                                               ; preds = %21
  %36 = load ptr, ptr %4, align 8, !tbaa !29
  %37 = getelementptr inbounds nuw %struct.Jpeg2000DecoderContext, ptr %36, i32 0, i32 1
  %38 = load ptr, ptr %37, align 8, !tbaa !43
  call void (ptr, i32, ptr, ...) @av_log(ptr noundef %38, i32 noundef 16, ptr noundef @.str.75)
  store i32 -1094995529, ptr %3, align 4
  store i32 1, ptr %8, align 4
  br label %85

39:                                               ; preds = %21
  %40 = load ptr, ptr %6, align 8, !tbaa !93
  %41 = getelementptr inbounds nuw %struct.Jpeg2000Tile, ptr %40, i32 0, i32 6
  store i8 1, ptr %41, align 8, !tbaa !104
  %42 = load ptr, ptr %4, align 8, !tbaa !29
  %43 = getelementptr inbounds nuw %struct.Jpeg2000DecoderContext, ptr %42, i32 0, i32 2
  %44 = call i32 @bytestream2_get_byte(ptr noundef %43)
  %45 = load ptr, ptr %6, align 8, !tbaa !93
  %46 = getelementptr inbounds nuw %struct.Jpeg2000Tile, ptr %45, i32 0, i32 7
  %47 = load ptr, ptr %46, align 8, !tbaa !105
  %48 = load ptr, ptr %6, align 8, !tbaa !93
  %49 = getelementptr inbounds nuw %struct.Jpeg2000Tile, ptr %48, i32 0, i32 8
  %50 = load i32, ptr %49, align 8, !tbaa !106
  %51 = load i32, ptr %5, align 4, !tbaa !48
  %52 = add nsw i32 %50, %51
  %53 = sub nsw i32 %52, 3
  %54 = sext i32 %53 to i64
  %55 = call ptr @av_realloc(ptr noundef %47, i64 noundef %54)
  store ptr %55, ptr %7, align 8, !tbaa !118
  %56 = load ptr, ptr %7, align 8, !tbaa !118
  %57 = icmp ne ptr %56, null
  br i1 %57, label %58, label %62

58:                                               ; preds = %39
  %59 = load ptr, ptr %7, align 8, !tbaa !118
  %60 = load ptr, ptr %6, align 8, !tbaa !93
  %61 = getelementptr inbounds nuw %struct.Jpeg2000Tile, ptr %60, i32 0, i32 7
  store ptr %59, ptr %61, align 8, !tbaa !105
  br label %63

62:                                               ; preds = %39
  store i32 -12, ptr %3, align 4
  store i32 1, ptr %8, align 4
  br label %85

63:                                               ; preds = %58
  %64 = load ptr, ptr %6, align 8, !tbaa !93
  %65 = getelementptr inbounds nuw %struct.Jpeg2000Tile, ptr %64, i32 0, i32 9
  call void @llvm.memset.p0.i64(ptr align 8 %65, i8 0, i64 24, i1 false)
  %66 = load ptr, ptr %4, align 8, !tbaa !29
  %67 = getelementptr inbounds nuw %struct.Jpeg2000DecoderContext, ptr %66, i32 0, i32 2
  %68 = load ptr, ptr %6, align 8, !tbaa !93
  %69 = getelementptr inbounds nuw %struct.Jpeg2000Tile, ptr %68, i32 0, i32 7
  %70 = load ptr, ptr %69, align 8, !tbaa !105
  %71 = load ptr, ptr %6, align 8, !tbaa !93
  %72 = getelementptr inbounds nuw %struct.Jpeg2000Tile, ptr %71, i32 0, i32 8
  %73 = load i32, ptr %72, align 8, !tbaa !106
  %74 = sext i32 %73 to i64
  %75 = getelementptr inbounds i8, ptr %70, i64 %74
  %76 = load i32, ptr %5, align 4, !tbaa !48
  %77 = sub nsw i32 %76, 3
  %78 = call i32 @bytestream2_get_bufferu(ptr noundef %67, ptr noundef %75, i32 noundef %77)
  %79 = load i32, ptr %5, align 4, !tbaa !48
  %80 = sub nsw i32 %79, 3
  %81 = load ptr, ptr %6, align 8, !tbaa !93
  %82 = getelementptr inbounds nuw %struct.Jpeg2000Tile, ptr %81, i32 0, i32 8
  %83 = load i32, ptr %82, align 8, !tbaa !106
  %84 = add nsw i32 %83, %80
  store i32 %84, ptr %82, align 8, !tbaa !106
  store i32 0, ptr %3, align 4
  store i32 1, ptr %8, align 4
  br label %85

85:                                               ; preds = %63, %62, %35, %20, %11
  call void @llvm.lifetime.end.p0(i64 8, ptr %7) #12
  call void @llvm.lifetime.end.p0(i64 8, ptr %6) #12
  %86 = load i32, ptr %3, align 4
  ret i32 %86
}