; Function Attrs: nounwind uwtable
define internal fastcc range(i32 -1094995529, 1) i32 @get_ppt(ptr noundef captures(none) %0, i32 noundef range(i32 2, 65536) %1) unnamed_addr #1 {
  %3 = icmp samesign ult i32 %1, 3
  br i1 %3, label %4, label %7

4:                                                ; preds = %2
  %5 = getelementptr inbounds nuw i8, ptr %0, i64 8
  %6 = load ptr, ptr %5, align 8, !tbaa !35
  tail call void (ptr, i32, ptr, ...) @av_log(ptr noundef %6, i32 noundef 16, ptr noundef nonnull @.str.74) #11
  br label %50

7:                                                ; preds = %2
  %8 = getelementptr inbounds nuw i8, ptr %0, i64 3124
  %9 = load i32, ptr %8, align 4, !tbaa !42
  %10 = icmp slt i32 %9, 0
  br i1 %10, label %50, label %11

11:                                               ; preds = %7
  %12 = getelementptr inbounds nuw i8, ptr %0, i64 3128
  %13 = load ptr, ptr %12, align 8, !tbaa !54
  %14 = zext nneg i32 %9 to i64
  %15 = getelementptr inbounds nuw %struct.Jpeg2000Tile, ptr %13, i64 %14
  %16 = getelementptr inbounds nuw i8, ptr %15, i64 3992
  %17 = load i16, ptr %16, align 8, !tbaa !55
  %.not = icmp eq i16 %17, 0
  br i1 %.not, label %bytestream2_get_byte.exit, label %18

18:                                               ; preds = %11
  %19 = getelementptr inbounds nuw i8, ptr %0, i64 8
  %20 = load ptr, ptr %19, align 8, !tbaa !35
  tail call void (ptr, i32, ptr, ...) @av_log(ptr noundef %20, i32 noundef 16, ptr noundef nonnull @.str.75) #11
  br label %50

bytestream2_get_byte.exit:                        ; preds = %11
  %21 = getelementptr inbounds nuw i8, ptr %15, i64 3944
  store i8 1, ptr %21, align 8, !tbaa !62
  %22 = getelementptr inbounds nuw i8, ptr %0, i64 16
  %23 = getelementptr inbounds nuw i8, ptr %0, i64 24
  %24 = load ptr, ptr %23, align 8, !tbaa !41
  %25 = load ptr, ptr %22, align 8, !tbaa !39
  %26 = ptrtoint ptr %24 to i64
  %27 = ptrtoint ptr %25 to i64
  %28 = sub i64 %26, %27
  %29 = icmp slt i64 %28, 1
  %30 = getelementptr inbounds nuw i8, ptr %25, i64 1
  %storemerge = select i1 %29, ptr %24, ptr %30
  store ptr %storemerge, ptr %22, align 8, !tbaa !43
  %31 = getelementptr inbounds nuw i8, ptr %15, i64 3952
  %32 = load ptr, ptr %31, align 8, !tbaa !64
  %33 = getelementptr inbounds nuw i8, ptr %15, i64 3960
  %34 = load i32, ptr %33, align 8, !tbaa !63
  %35 = add nsw i32 %1, -3
  %36 = add i32 %35, %34
  %37 = sext i32 %36 to i64
  %38 = tail call ptr @av_realloc(ptr noundef %32, i64 noundef %37) #11
  %.not25 = icmp eq ptr %38, null
  br i1 %.not25, label %50, label %39

39:                                               ; preds = %bytestream2_get_byte.exit
  store ptr %38, ptr %31, align 8, !tbaa !64
  %40 = getelementptr inbounds nuw i8, ptr %15, i64 3968
  tail call void @llvm.memset.p0.i64(ptr noundef nonnull align 8 dereferenceable(24) %40, i8 0, i64 24, i1 false)
  %41 = load i32, ptr %33, align 8, !tbaa !63
  %42 = sext i32 %41 to i64
  %43 = getelementptr inbounds i8, ptr %38, i64 %42
  %44 = load ptr, ptr %22, align 8, !tbaa !39
  %45 = zext nneg i32 %35 to i64
  tail call void @llvm.memcpy.p0.p0.i64(ptr nonnull align 1 %43, ptr align 1 %44, i64 %45, i1 false)
  %46 = load ptr, ptr %22, align 8, !tbaa !39
  %47 = getelementptr inbounds nuw i8, ptr %46, i64 %45
  store ptr %47, ptr %22, align 8, !tbaa !39
  %48 = load i32, ptr %33, align 8, !tbaa !63
  %49 = add nsw i32 %48, %35
  store i32 %49, ptr %33, align 8, !tbaa !63
  br label %50

50:                                               ; preds = %bytestream2_get_byte.exit, %7, %39, %18, %4
  %.0 = phi i32 [ -1094995529, %4 ], [ -1094995529, %18 ], [ 0, %39 ], [ -1094995529, %7 ], [ -12, %bytestream2_get_byte.exit ]
  ret i32 %.0
}